target datalayout = "e-m:e-p270:32:32-p271:32:32-p272:64:64-i64:64-i128:128-f80:128-n8:16:32:64-S128"
target triple = "x86_64-unknown-linux-gnu"

%"class.std::_Function_base" = type { %"union.std::_Any_data", ptr }
%"union.std::_Any_data" = type { %"union.std::_Nocopy_types" }
%"union.std::_Nocopy_types" = type { { i64, i64 } }
%class.anon.131 = type { i8 }
%"class.folly::ThreadLocal" = type { %"class.folly::ThreadLocalPtr", %"class.std::function.127" }
%"class.folly::ThreadLocalPtr" = type { %"class.folly::threadlocal_detail::StaticMetaBase::EntryID" }
%"class.folly::threadlocal_detail::StaticMetaBase::EntryID" = type { %"struct.std::atomic.125" }
%"struct.std::atomic.125" = type { %"struct.std::__atomic_base.126" }
%"struct.std::__atomic_base.126" = type { i32 }
%"class.std::function.127" = type { %"class.std::_Function_base", ptr }

; Function Attrs: mustprogress nounwind uwtable
define linkonce_odr noundef ptr @_ZNSt9_Any_data9_M_accessEv(ptr noundef nonnull align 8 dereferenceable(16) %this) #4 comdat align 2 {
entry:
  %this.addr = alloca ptr, align 8
  store ptr %this, ptr %this.addr, align 8
  %this1 = load ptr, ptr %this.addr, align 8
  %arrayidx = getelementptr inbounds [16 x i8], ptr %this1, i64 0, i64 0
  ret ptr %arrayidx
}

; Function Attrs: mustprogress nounwind uwtable
define linkonce_odr void @_ZNSt13__atomic_baseIjEC2Ej(ptr noundef nonnull align 4 dereferenceable(4) %this, i32 noundef %__i) unnamed_addr #4 comdat align 2 {
entry:
  %this.addr = alloca ptr, align 8
  %__i.addr = alloca i32, align 4
  store ptr %this, ptr %this.addr, align 8
  store i32 %__i, ptr %__i.addr, align 4
  %this1 = load ptr, ptr %this.addr, align 8
  %_M_i = getelementptr inbounds %"struct.std::__atomic_base.126", ptr %this1, i32 0, i32 0
  %0 = load i32, ptr %__i.addr, align 4
  store i32 %0, ptr %_M_i, align 4
  ret void
}

; Function Attrs: noreturn nounwind uwtable
define linkonce_odr hidden void @__clang_call_terminate(ptr noundef %0) #8 comdat {
  %2 = call ptr @__cxa_begin_catch(ptr %0) #2
  call void @_ZSt9terminatev() #27
  unreachable
}

; Function Attrs: mustprogress nounwind uwtable
define internal void @_ZNSt14_Function_base13_Base_managerIZN5folly11ThreadLocalINS1_20SingletonThreadLocalIN8proxygen12_GLOBAL__N_113FormattedDateEZNS4_11HTTPMessage16formatDateHeaderB5cxx11EvE7DateTagNS1_6detail11DefaultMakeIS6_EES8_E7WrapperES8_vEC1EvEUlvE_E9_M_createISF_EEvRSt9_Any_dataOT_St17integral_constantIbLb1EE(ptr noundef nonnull align 8 dereferenceable(16) %__dest, ptr noundef nonnull align 1 dereferenceable(1) %__f) #4 align 2 {
entry:
  %__dest.addr = alloca ptr, align 8
  %__f.addr = alloca ptr, align 8
  store ptr %__dest, ptr %__dest.addr, align 8
  store ptr %__f, ptr %__f.addr, align 8
  %0 = load ptr, ptr %__dest.addr, align 8
  %call = call noundef ptr @_ZNSt9_Any_data9_M_accessEv(ptr noundef nonnull align 8 dereferenceable(16) %0) #2
  ret void
}

; Function Attrs: mustprogress nounwind uwtable
define linkonce_odr void @_ZNSt6atomicIjEC2Ej(ptr noundef nonnull align 4 dereferenceable(4) %this, i32 noundef %__i) unnamed_addr #4 comdat align 2 {
entry:
  %this.addr = alloca ptr, align 8
  %__i.addr = alloca i32, align 4
  store ptr %this, ptr %this.addr, align 8
  store i32 %__i, ptr %__i.addr, align 4
  %this1 = load ptr, ptr %this.addr, align 8
  %0 = load i32, ptr %__i.addr, align 4
  call void @_ZNSt13__atomic_baseIjEC2Ej(ptr noundef nonnull align 4 dereferenceable(4) %this1, i32 noundef %0) #2
  ret void
}

; Function Attrs: mustprogress nounwind uwtable
define internal void @_ZNSt14_Function_base13_Base_managerIZN5folly11ThreadLocalINS1_20SingletonThreadLocalIN8proxygen12_GLOBAL__N_113FormattedDateEZNS4_11HTTPMessage16formatDateHeaderB5cxx11EvE7DateTagNS1_6detail11DefaultMakeIS6_EES8_E7WrapperES8_vEC1EvEUlvE_E15_M_init_functorISF_EEvRSt9_Any_dataOT_(ptr noundef nonnull align 8 dereferenceable(16) %__functor, ptr noundef nonnull align 1 dereferenceable(1) %__f) #4 align 2 personality ptr @__gxx_personality_v0 {
entry:
  %__functor.addr = alloca ptr, align 8
  %__f.addr = alloca ptr, align 8
  store ptr %__functor, ptr %__functor.addr, align 8
  store ptr %__f, ptr %__f.addr, align 8
  %0 = load ptr, ptr %__functor.addr, align 8
  %1 = load ptr, ptr %__f.addr, align 8
  invoke void @_ZNSt14_Function_base13_Base_managerIZN5folly11ThreadLocalINS1_20SingletonThreadLocalIN8proxygen12_GLOBAL__N_113FormattedDateEZNS4_11HTTPMessage16formatDateHeaderB5cxx11EvE7DateTagNS1_6detail11DefaultMakeIS6_EES8_E7WrapperES8_vEC1EvEUlvE_E9_M_createISF_EEvRSt9_Any_dataOT_St17integral_constantIbLb1EE(ptr noundef nonnull align 8 dereferenceable(16) %0, ptr noundef nonnull align 1 dereferenceable(1) %1)
          to label %invoke.cont unwind label %terminate.lpad

invoke.cont:                                      ; preds = %entry
  ret void

terminate.lpad:                                   ; preds = %entry
  %2 = landingpad { ptr, i32 }
          catch ptr null
  %3 = extractvalue { ptr, i32 } %2, 0
  call void @__clang_call_terminate(ptr %3) #27
  unreachable
}

; Function Attrs: mustprogress nounwind uwtable
define internal noundef zeroext i1 @_ZNSt14_Function_base13_Base_managerIZN5folly11ThreadLocalINS1_20SingletonThreadLocalIN8proxygen12_GLOBAL__N_113FormattedDateEZNS4_11HTTPMessage16formatDateHeaderB5cxx11EvE7DateTagNS1_6detail11DefaultMakeIS6_EES8_E7WrapperES8_vEC1EvEUlvE_E21_M_not_empty_functionISF_EEbRKT_(ptr noundef nonnull align 1 dereferenceable(1) %0) #4 align 2 {
entry:
  %.addr = alloca ptr, align 8
  store ptr %0, ptr %.addr, align 8
  ret i1 true
}

; Function Attrs: mustprogress nounwind uwtable
define linkonce_odr void @_ZNSt14_Function_baseC2Ev(ptr noundef nonnull align 8 dereferenceable(24) %this) unnamed_addr #4 comdat align 2 {
entry:
  %this.addr = alloca ptr, align 8
  store ptr %this, ptr %this.addr, align 8
  %this1 = load ptr, ptr %this.addr, align 8
  %_M_functor = getelementptr inbounds %"class.std::_Function_base", ptr %this1, i32 0, i32 0
  store ptr null, ptr %_M_functor, align 8
  %_M_manager = getelementptr inbounds %"class.std::_Function_base", ptr %this1, i32 0, i32 1
  store ptr null, ptr %_M_manager, align 8
  ret void
}

; Function Attrs: mustprogress nounwind uwtable
define linkonce_odr void @_ZN5folly18threadlocal_detail14StaticMetaBase7EntryIDC2Ev(ptr noundef nonnull align 4 dereferenceable(4) %this) unnamed_addr #4 comdat align 2 {
entry:
  %this.addr = alloca ptr, align 8
  store ptr %this, ptr %this.addr, align 8
  %this1 = load ptr, ptr %this.addr, align 8
  %value = getelementptr inbounds %"class.folly::threadlocal_detail::StaticMetaBase::EntryID", ptr %this1, i32 0, i32 0
  call void @_ZNSt6atomicIjEC2Ej(ptr noundef nonnull align 4 dereferenceable(4) %value, i32 noundef -1) #2
  ret void
}

; Function Attrs: mustprogress nounwind uwtable
define internal void @_ZNSt8functionIFPvvEEC2IZN5folly11ThreadLocalINS4_20SingletonThreadLocalIN8proxygen12_GLOBAL__N_113FormattedDateEZNS7_11HTTPMessage16formatDateHeaderB5cxx11EvE7DateTagNS4_6detail11DefaultMakeIS9_EESB_E7WrapperESB_vEC1EvEUlvE_vEEOT_(ptr noundef nonnull align 8 dereferenceable(32) %this, ptr noundef nonnull align 1 dereferenceable(1) %__f) unnamed_addr #4 align 2 {
entry:
  %this.addr = alloca ptr, align 8
  %__f.addr = alloca ptr, align 8
  store ptr %this, ptr %this.addr, align 8
  store ptr %__f, ptr %__f.addr, align 8
  %this1 = load ptr, ptr %this.addr, align 8
  %0 = getelementptr inbounds i8, ptr %this1, i64 0
  call void @llvm.memset.p0.i64(ptr align 8 %0, i8 0, i64 24, i1 false)
  call void @_ZNSt14_Function_baseC2Ev(ptr noundef nonnull align 8 dereferenceable(24) %this1) #2
  %_M_invoker = getelementptr inbounds %"class.std::function.127", ptr %this1, i32 0, i32 1
  store ptr null, ptr %_M_invoker, align 8
  %1 = load ptr, ptr %__f.addr, align 8
  %call = call noundef zeroext i1 @_ZNSt14_Function_base13_Base_managerIZN5folly11ThreadLocalINS1_20SingletonThreadLocalIN8proxygen12_GLOBAL__N_113FormattedDateEZNS4_11HTTPMessage16formatDateHeaderB5cxx11EvE7DateTagNS1_6detail11DefaultMakeIS6_EES8_E7WrapperES8_vEC1EvEUlvE_E21_M_not_empty_functionISF_EEbRKT_(ptr noundef nonnull align 1 dereferenceable(1) %1) #2
  br i1 %call, label %if.then, label %if.end

if.then:                                          ; preds = %entry
  %_M_functor = getelementptr inbounds %"class.std::_Function_base", ptr %this1, i32 0, i32 0
  %2 = load ptr, ptr %__f.addr, align 8
  call void @_ZNSt14_Function_base13_Base_managerIZN5folly11ThreadLocalINS1_20SingletonThreadLocalIN8proxygen12_GLOBAL__N_113FormattedDateEZNS4_11HTTPMessage16formatDateHeaderB5cxx11EvE7DateTagNS1_6detail11DefaultMakeIS6_EES8_E7WrapperES8_vEC1EvEUlvE_E15_M_init_functorISF_EEvRSt9_Any_dataOT_(ptr noundef nonnull align 8 dereferenceable(16) %_M_functor, ptr noundef nonnull align 1 dereferenceable(1) %2) #2
  %_M_invoker2 = getelementptr inbounds %"class.std::function.127", ptr %this1, i32 0, i32 1
  store ptr @_ZNSt17_Function_handlerIFPvvEZN5folly11ThreadLocalINS2_20SingletonThreadLocalIN8proxygen12_GLOBAL__N_113FormattedDateEZNS5_11HTTPMessage16formatDateHeaderB5cxx11EvE7DateTagNS2_6detail11DefaultMakeIS7_EES9_E7WrapperES9_vEC1EvEUlvE_E9_M_invokeERKSt9_Any_data, ptr %_M_invoker2, align 8
  %_M_manager = getelementptr inbounds %"class.std::_Function_base", ptr %this1, i32 0, i32 1
  store ptr @_ZNSt17_Function_handlerIFPvvEZN5folly11ThreadLocalINS2_20SingletonThreadLocalIN8proxygen12_GLOBAL__N_113FormattedDateEZNS5_11HTTPMessage16formatDateHeaderB5cxx11EvE7DateTagNS2_6detail11DefaultMakeIS7_EES9_E7WrapperES9_vEC1EvEUlvE_E10_M_managerERSt9_Any_dataRKSI_St18_Manager_operation, ptr %_M_manager, align 8
  br label %if.end

if.end:                                           ; preds = %if.then, %entry
  ret void
}

; Function Attrs: mustprogress uwtable
define internal void @_ZN5folly14ThreadLocalPtrINS_20SingletonThreadLocalIN8proxygen12_GLOBAL__N_113FormattedDateEZNS2_11HTTPMessage16formatDateHeaderB5cxx11EvE7DateTagNS_6detail11DefaultMakeIS4_EES6_E7WrapperES6_vEC2Ev(ptr noundef nonnull align 4 dereferenceable(4) %this) unnamed_addr #3 align 2 {
entry:
  %this.addr = alloca ptr, align 8
  store ptr %this, ptr %this.addr, align 8
  %this1 = load ptr, ptr %this.addr, align 8
  %id_ = getelementptr inbounds %"class.folly::ThreadLocalPtr", ptr %this1, i32 0, i32 0
  call void @_ZN5folly18threadlocal_detail14StaticMetaBase7EntryIDC2Ev(ptr noundef nonnull align 4 dereferenceable(4) %id_)
  ret void
}

; Function Attrs: mustprogress uwtable
define internal void @_ZN5folly11ThreadLocalINS_20SingletonThreadLocalIN8proxygen12_GLOBAL__N_113FormattedDateEZNS2_11HTTPMessage16formatDateHeaderB5cxx11EvE7DateTagNS_6detail11DefaultMakeIS4_EES6_E7WrapperES6_vEC2Ev(ptr noundef nonnull align 8 dereferenceable(40) %this) unnamed_addr #3 align 2 {
entry:
  %this.addr = alloca ptr, align 8
  %ref.tmp = alloca %class.anon.131, align 1
  store ptr %this, ptr %this.addr, align 8
  %this1 = load ptr, ptr %this.addr, align 8
  %tlp_ = getelementptr inbounds %"class.folly::ThreadLocal", ptr %this1, i32 0, i32 0
  call void @_ZN5folly14ThreadLocalPtrINS_20SingletonThreadLocalIN8proxygen12_GLOBAL__N_113FormattedDateEZNS2_11HTTPMessage16formatDateHeaderB5cxx11EvE7DateTagNS_6detail11DefaultMakeIS4_EES6_E7WrapperES6_vEC2Ev(ptr noundef nonnull align 4 dereferenceable(4) %tlp_)
  %constructor_ = getelementptr inbounds %"class.folly::ThreadLocal", ptr %this1, i32 0, i32 1
  call void @_ZNSt8functionIFPvvEEC2IZN5folly11ThreadLocalINS4_20SingletonThreadLocalIN8proxygen12_GLOBAL__N_113FormattedDateEZNS7_11HTTPMessage16formatDateHeaderB5cxx11EvE7DateTagNS4_6detail11DefaultMakeIS9_EESB_E7WrapperESB_vEC1EvEUlvE_vEEOT_(ptr noundef nonnull align 8 dereferenceable(32) %constructor_, ptr noundef nonnull align 1 dereferenceable(1) %ref.tmp) #2
  ret void
}

; Function Attrs: mustprogress uwtable
define internal noundef ptr @_ZN5folly6detail5thunk4makeINS_11ThreadLocalINS_20SingletonThreadLocalIN8proxygen12_GLOBAL__N_113FormattedDateEZNS5_11HTTPMessage16formatDateHeaderB5cxx11EvE7DateTagNS0_11DefaultMakeIS7_EES9_E7WrapperES9_vEEJEEEPvDpT0_() #3 align 2 personality ptr @__gxx_personality_v0 {
entry:
  %exn.slot = alloca ptr, align 8
  %ehselector.slot = alloca i32, align 4
  %call = call noalias noundef nonnull ptr @_Znwm(i64 noundef 40) #25
  invoke void @_ZN5folly11ThreadLocalINS_20SingletonThreadLocalIN8proxygen12_GLOBAL__N_113FormattedDateEZNS2_11HTTPMessage16formatDateHeaderB5cxx11EvE7DateTagNS_6detail11DefaultMakeIS4_EES6_E7WrapperES6_vEC2Ev(ptr noundef nonnull align 8 dereferenceable(40) %call)
          to label %invoke.cont unwind label %lpad

invoke.cont:                                      ; preds = %entry
  ret ptr %call

lpad:                                             ; preds = %entry
  %0 = landingpad { ptr, i32 }
          cleanup
  %1 = extractvalue { ptr, i32 } %0, 0
  store ptr %1, ptr %exn.slot, align 8
  %2 = extractvalue { ptr, i32 } %0, 1
  store i32 %2, ptr %ehselector.slot, align 4
  call void @_ZdlPv(ptr noundef %call) #26
  br label %eh.resume

eh.resume:                                        ; preds = %lpad
  %exn = load ptr, ptr %exn.slot, align 8
  %sel = load i32, ptr %ehselector.slot, align 4
  %lpad.val = insertvalue { ptr, i32 } poison, ptr %exn, 0
  %lpad.val1 = insertvalue { ptr, i32 } %lpad.val, i32 %sel, 1
  resume { ptr, i32 } %lpad.val1
}