; Function Attrs: mustprogress uwtable
define internal noalias noundef nonnull ptr @_ZN5folly6detail5thunk4makeINS_11ThreadLocalINS_20SingletonThreadLocalIN8proxygen12_GLOBAL__N_113FormattedDateEZNS5_11HTTPMessage16formatDateHeaderB5cxx11EvE7DateTagNS0_11DefaultMakeIS7_EES9_E7WrapperES9_vEEJEEEPvDpT0_() #2 align 2 personality ptr @__gxx_personality_v0 {
invoke.cont:
  %call = tail call noalias noundef nonnull dereferenceable(40) ptr @_Znwm(i64 noundef 40) #33
  store i32 -1, ptr %call, align 4
  %constructor_.i = getelementptr inbounds i8, ptr %call, i64 8
  %_M_manager.i.i.i = getelementptr inbounds i8, ptr %call, i64 24
  %_M_invoker.i.i = getelementptr inbounds i8, ptr %call, i64 32
  tail call void @llvm.memset.p0.i64(ptr noundef nonnull align 8 dereferenceable(16) %constructor_.i, i8 0, i64 16, i1 false)
  store ptr @_ZNSt17_Function_handlerIFPvvEZN5folly11ThreadLocalINS2_20SingletonThreadLocalIN8proxygen12_GLOBAL__N_113FormattedDateEZNS5_11HTTPMessage16formatDateHeaderB5cxx11EvE7DateTagNS2_6detail11DefaultMakeIS7_EES9_E7WrapperES9_vEC1EvEUlvE_E9_M_invokeERKSt9_Any_data, ptr %_M_invoker.i.i, align 8
  store ptr @_ZNSt17_Function_handlerIFPvvEZN5folly11ThreadLocalINS2_20SingletonThreadLocalIN8proxygen12_GLOBAL__N_113FormattedDateEZNS5_11HTTPMessage16formatDateHeaderB5cxx11EvE7DateTagNS2_6detail11DefaultMakeIS7_EES9_E7WrapperES9_vEC1EvEUlvE_E10_M_managerERSt9_Any_dataRKSI_St18_Manager_operation, ptr %_M_manager.i.i.i, align 8
  ret ptr %call
}